target datalayout = "e-m:e-p270:32:32-p271:32:32-p272:64:64-i64:64-i128:128-f80:128-n8:16:32:64-S128"
target triple = "x86_64-pc-linux-gnu"

%"struct.OpenImageIO::v3_1_0::TypeDesc" = type { i8, i8, i8, i8, i32 }
%"class.OpenImageIO::v3_1_0::ImageSpec" = type { i32, i32, i32, i32, i32, i32, i32, i32, i32, i32, i32, i32, i32, i32, i32, i32, %"struct.OpenImageIO::v3_1_0::TypeDesc", %"class.std::vector", %"class.std::vector.4", i32, i32, i8, %"class.OpenImageIO::v3_1_0::ParamValueList" }
%"class.std::vector" = type { %"struct.std::_Vector_base" }
%"struct.std::_Vector_base" = type { %"struct.std::_Vector_base<OpenImageIO::v3_1_0::TypeDesc, std::allocator<OpenImageIO::v3_1_0::TypeDesc>>::_Vector_impl" }
%"struct.std::_Vector_base<OpenImageIO::v3_1_0::TypeDesc, std::allocator<OpenImageIO::v3_1_0::TypeDesc>>::_Vector_impl" = type { %"struct.std::_Vector_base<OpenImageIO::v3_1_0::TypeDesc, std::allocator<OpenImageIO::v3_1_0::TypeDesc>>::_Vector_impl_data" }
%"struct.std::_Vector_base<OpenImageIO::v3_1_0::TypeDesc, std::allocator<OpenImageIO::v3_1_0::TypeDesc>>::_Vector_impl_data" = type { ptr, ptr, ptr }
%"class.std::vector.4" = type { %"struct.std::_Vector_base.5" }
%"struct.std::_Vector_base.5" = type { %"struct.std::_Vector_base<std::__cxx11::basic_string<char>, std::allocator<std::__cxx11::basic_string<char>>>::_Vector_impl" }
%"struct.std::_Vector_base<std::__cxx11::basic_string<char>, std::allocator<std::__cxx11::basic_string<char>>>::_Vector_impl" = type { %"struct.std::_Vector_base<std::__cxx11::basic_string<char>, std::allocator<std::__cxx11::basic_string<char>>>::_Vector_impl_data" }
%"struct.std::_Vector_base<std::__cxx11::basic_string<char>, std::allocator<std::__cxx11::basic_string<char>>>::_Vector_impl_data" = type { ptr, ptr, ptr }
%"class.OpenImageIO::v3_1_0::ParamValueList" = type { %"class.std::vector.9" }
%"class.std::vector.9" = type { %"struct.std::_Vector_base.10" }
%"struct.std::_Vector_base.10" = type { %"struct.std::_Vector_base<OpenImageIO::v3_1_0::ParamValue, std::allocator<OpenImageIO::v3_1_0::ParamValue>>::_Vector_impl" }
%"struct.std::_Vector_base<OpenImageIO::v3_1_0::ParamValue, std::allocator<OpenImageIO::v3_1_0::ParamValue>>::_Vector_impl" = type { %"struct.std::_Vector_base<OpenImageIO::v3_1_0::ParamValue, std::allocator<OpenImageIO::v3_1_0::ParamValue>>::_Vector_impl_data" }
%"struct.std::_Vector_base<OpenImageIO::v3_1_0::ParamValue, std::allocator<OpenImageIO::v3_1_0::ParamValue>>::_Vector_impl_data" = type { ptr, ptr, ptr }

; Function Attrs: mustprogress nounwind uwtable
define linkonce_odr void @_ZN11OpenImageIO6v3_1_08TypeDescC2ENS1_8BASETYPEENS1_9AGGREGATEENS1_12VECSEMANTICSEi(ptr noundef nonnull align 4 dereferenceable(8) %0, i32 noundef %1, i32 noundef %2, i32 noundef %3, i32 noundef %4) unnamed_addr #7 comdat align 2 {
  %6 = alloca ptr, align 8
  %7 = alloca i32, align 4
  %8 = alloca i32, align 4
  %9 = alloca i32, align 4
  %10 = alloca i32, align 4
  store ptr %0, ptr %6, align 8, !tbaa !79
  store i32 %1, ptr %7, align 4, !tbaa !80
  store i32 %2, ptr %8, align 4, !tbaa !82
  store i32 %3, ptr %9, align 4, !tbaa !84
  store i32 %4, ptr %10, align 4, !tbaa !72
  %11 = load ptr, ptr %6, align 8
  %12 = getelementptr inbounds nuw %"struct.OpenImageIO::v3_1_0::TypeDesc", ptr %11, i32 0, i32 0
  %13 = load i32, ptr %7, align 4, !tbaa !80
  %14 = trunc i32 %13 to i8
  store i8 %14, ptr %12, align 4, !tbaa !86
  %15 = getelementptr inbounds nuw %"struct.OpenImageIO::v3_1_0::TypeDesc", ptr %11, i32 0, i32 1
  %16 = load i32, ptr %8, align 4, !tbaa !82
  %17 = trunc i32 %16 to i8
  store i8 %17, ptr %15, align 1, !tbaa !87
  %18 = getelementptr inbounds nuw %"struct.OpenImageIO::v3_1_0::TypeDesc", ptr %11, i32 0, i32 2
  %19 = load i32, ptr %9, align 4, !tbaa !84
  %20 = trunc i32 %19 to i8
  store i8 %20, ptr %18, align 2, !tbaa !88
  %21 = getelementptr inbounds nuw %"struct.OpenImageIO::v3_1_0::TypeDesc", ptr %11, i32 0, i32 3
  store i8 0, ptr %21, align 1, !tbaa !89
  %22 = getelementptr inbounds nuw %"struct.OpenImageIO::v3_1_0::TypeDesc", ptr %11, i32 0, i32 4
  %23 = load i32, ptr %10, align 4, !tbaa !72
  store i32 %23, ptr %22, align 4, !tbaa !90
  ret void
}

; Function Attrs: mustprogress uwtable
define hidden noundef zeroext i1 @_ZN11OpenImageIO6v3_1_08webp_pvt9WebpInput4openERKNSt7__cxx1112basic_stringIcSt11char_traitsIcESaIcEEERNS0_9ImageSpecE(ptr noundef nonnull align 8 dereferenceable(352) %0, ptr noundef nonnull align 8 dereferenceable(32) %1, ptr noundef nonnull align 8 dereferenceable(160) %2) unnamed_addr #6 align 2 personality ptr @__gxx_personality_v0 {
  %4 = alloca ptr, align 8
  %5 = alloca ptr, align 8
  %6 = alloca ptr, align 8
  %7 = alloca %"class.OpenImageIO::v3_1_0::ImageSpec", align 8
  %8 = alloca %"struct.OpenImageIO::v3_1_0::TypeDesc", align 4
  %9 = alloca ptr, align 8
  %10 = alloca i32, align 4
  store ptr %0, ptr %4, align 8, !tbaa !8
  store ptr %1, ptr %5, align 8, !tbaa !22
  store ptr %2, ptr %6, align 8, !tbaa !24
  %11 = load ptr, ptr %4, align 8
  %12 = load ptr, ptr %5, align 8, !tbaa !22
  %13 = load ptr, ptr %6, align 8, !tbaa !24
  call void @llvm.lifetime.start.p0(i64 160, ptr %7) #3
  call void @_ZN11OpenImageIO6v3_1_08TypeDescC2ENS1_8BASETYPEENS1_9AGGREGATEENS1_12VECSEMANTICSEi(ptr noundef nonnull align 4 dereferenceable(8) %8, i32 noundef 0, i32 noundef 1, i32 noundef 0, i32 noundef 0) #3
  %14 = load i64, ptr %8, align 4
  call void @_ZN11OpenImageIO6v3_1_09ImageSpecC1ENS0_8TypeDescE(ptr noundef nonnull align 8 dereferenceable(160) %7, i64 %14) #3
  %15 = invoke noundef zeroext i1 @_ZN11OpenImageIO6v3_1_08webp_pvt9WebpInput4openERKNSt7__cxx1112basic_stringIcSt11char_traitsIcESaIcEEERNS0_9ImageSpecERKSB_(ptr noundef nonnull align 8 dereferenceable(352) %11, ptr noundef nonnull align 8 dereferenceable(32) %12, ptr noundef nonnull align 8 dereferenceable(160) %13, ptr noundef nonnull align 8 dereferenceable(160) %7)
          to label %16 unwind label %17

16:                                               ; preds = %3
  call void @_ZN11OpenImageIO6v3_1_09ImageSpecD2Ev(ptr noundef nonnull align 8 dereferenceable(160) %7) #3
  call void @llvm.lifetime.end.p0(i64 160, ptr %7) #3
  ret i1 %15

17:                                               ; preds = %3
  %18 = landingpad { ptr, i32 }
          cleanup
  %19 = extractvalue { ptr, i32 } %18, 0
  store ptr %19, ptr %9, align 8
  %20 = extractvalue { ptr, i32 } %18, 1
  store i32 %20, ptr %10, align 4
  call void @_ZN11OpenImageIO6v3_1_09ImageSpecD2Ev(ptr noundef nonnull align 8 dereferenceable(160) %7) #3
  call void @llvm.lifetime.end.p0(i64 160, ptr %7) #3
  br label %21

21:                                               ; preds = %17
  %22 = load ptr, ptr %9, align 8
  %23 = load i32, ptr %10, align 4
  %24 = insertvalue { ptr, i32 } poison, ptr %22, 0
  %25 = insertvalue { ptr, i32 } %24, i32 %23, 1
  resume { ptr, i32 } %25
}